; ModuleID = '28/340.c'
source_filename = "28/340.c"
target datalayout = "e-m:e-p270:32:32-p271:32:32-p272:64:64-i64:64-f80:128-n8:16:32:64-S128"
target triple = "x86_64-pc-linux-gnu"

@.str = private unnamed_addr constant [3 x i8] c"%d\00", align 1
@.str.1 = private unnamed_addr constant [4 x i8] c",%d\00", align 1

; Function Attrs: noinline nounwind uwtable
define dso_local void @main() #0 {
  %1 = alloca [1000 x i8], align 16
  %2 = alloca i8, align 1
  %3 = alloca i8*, align 8
  %4 = alloca [1000 x i32], align 16
  %5 = alloca i32, align 4
  %6 = alloca i32, align 4
  %7 = alloca i32, align 4
  %8 = alloca i32, align 4
  store i32 0, i32* %8, align 4
  %9 = getelementptr inbounds [1000 x i8], [1000 x i8]* %1, i64 0, i64 0
  %10 = call i32 (i8*, ...) bitcast (i32 (...)* @gets to i32 (i8*, ...)*)(i8* %9)
  %11 = getelementptr inbounds [1000 x i8], [1000 x i8]* %1, i64 0, i64 0
  %12 = call i64 @strlen(i8* %11) #3
  %13 = trunc i64 %12 to i32
  store i32 %13, i32* %7, align 4
  %14 = getelementptr inbounds [1000 x i8], [1000 x i8]* %1, i64 0, i64 0
  store i8* %14, i8** %3, align 8
  br label %15

15:                                               ; preds = %31, %0
  %16 = load i8*, i8** %3, align 8
  %17 = getelementptr inbounds [1000 x i8], [1000 x i8]* %1, i64 0, i64 0
  %18 = load i32, i32* %7, align 4
  %19 = sext i32 %18 to i64
  %20 = getelementptr inbounds i8, i8* %17, i64 %19
  %21 = icmp ult i8* %16, %20
  br i1 %21, label %22, label %34

22:                                               ; preds = %15
  %23 = load i8*, i8** %3, align 8
  %24 = load i8, i8* %23, align 1
  %25 = sext i8 %24 to i32
  %26 = icmp eq i32 %25, 32
  br i1 %26, label %27, label %30

27:                                               ; preds = %22
  %28 = load i32, i32* %8, align 4
  %29 = add nsw i32 %28, 1
  store i32 %29, i32* %8, align 4
  br label %30

30:                                               ; preds = %27, %22
  br label %31

31:                                               ; preds = %30
  %32 = load i8*, i8** %3, align 8
  %33 = getelementptr inbounds i8, i8* %32, i32 1
  store i8* %33, i8** %3, align 8
  br label %15

34:                                               ; preds = %15
  store i32 0, i32* %6, align 4
  store i32 0, i32* %5, align 4
  br label %35

35:                                               ; preds = %43, %34
  %36 = load i32, i32* %5, align 4
  %37 = load i32, i32* %8, align 4
  %38 = icmp sle i32 %36, %37
  br i1 %38, label %39, label %46

39:                                               ; preds = %35
  %40 = load i32, i32* %5, align 4
  %41 = sext i32 %40 to i64
  %42 = getelementptr inbounds [1000 x i32], [1000 x i32]* %4, i64 0, i64 %41
  store i32 0, i32* %42, align 4
  br label %43

43:                                               ; preds = %39
  %44 = load i32, i32* %5, align 4
  %45 = add nsw i32 %44, 1
  store i32 %45, i32* %5, align 4
  br label %35

46:                                               ; preds = %35
  %47 = getelementptr inbounds [1000 x i8], [1000 x i8]* %1, i64 0, i64 0
  store i8* %47, i8** %3, align 8
  br label %48

48:                                               ; preds = %73, %46
  %49 = load i8*, i8** %3, align 8
  %50 = getelementptr inbounds [1000 x i8], [1000 x i8]* %1, i64 0, i64 0
  %51 = load i32, i32* %7, align 4
  %52 = sext i32 %51 to i64
  %53 = getelementptr inbounds i8, i8* %50, i64 %52
  %54 = icmp ult i8* %49, %53
  br i1 %54, label %55, label %76

55:                                               ; preds = %48
  %56 = load i8*, i8** %3, align 8
  %57 = load i8, i8* %56, align 1
  %58 = sext i8 %57 to i32
  %59 = icmp eq i32 %58, 32
  br i1 %59, label %60, label %63

60:                                               ; preds = %55
  %61 = load i32, i32* %6, align 4
  %62 = add nsw i32 %61, 1
  store i32 %62, i32* %6, align 4
  br label %73

63:                                               ; preds = %55
  %64 = load i32, i32* %6, align 4
  %65 = sext i32 %64 to i64
  %66 = getelementptr inbounds [1000 x i32], [1000 x i32]* %4, i64 0, i64 %65
  %67 = load i32, i32* %66, align 4
  %68 = add nsw i32 %67, 1
  %69 = load i32, i32* %6, align 4
  %70 = sext i32 %69 to i64
  %71 = getelementptr inbounds [1000 x i32], [1000 x i32]* %4, i64 0, i64 %70
  store i32 %68, i32* %71, align 4
  br label %72

72:                                               ; preds = %63
  br label %73

73:                                               ; preds = %72, %60
  %74 = load i8*, i8** %3, align 8
  %75 = getelementptr inbounds i8, i8* %74, i32 1
  store i8* %75, i8** %3, align 8
  br label %48

76:                                               ; preds = %48
  %77 = getelementptr inbounds [1000 x i32], [1000 x i32]* %4, i64 0, i64 0
  %78 = load i32, i32* %77, align 16
  %79 = call i32 (i8*, ...) @printf(i8* getelementptr inbounds ([3 x i8], [3 x i8]* @.str, i64 0, i64 0), i32 %78)
  store i32 1, i32* %5, align 4
  br label %80

80:                                               ; preds = %97, %76
  %81 = load i32, i32* %5, align 4
  %82 = load i32, i32* %8, align 4
  %83 = icmp sle i32 %81, %82
  br i1 %83, label %84, label %100

84:                                               ; preds = %80
  %85 = load i32, i32* %5, align 4
  %86 = sext i32 %85 to i64
  %87 = getelementptr inbounds [1000 x i32], [1000 x i32]* %4, i64 0, i64 %86
  %88 = load i32, i32* %87, align 4
  %89 = icmp ne i32 %88, 0
  br i1 %89, label %90, label %96

90:                                               ; preds = %84
  %91 = load i32, i32* %5, align 4
  %92 = sext i32 %91 to i64
  %93 = getelementptr inbounds [1000 x i32], [1000 x i32]* %4, i64 0, i64 %92
  %94 = load i32, i32* %93, align 4
  %95 = call i32 (i8*, ...) @printf(i8* getelementptr inbounds ([4 x i8], [4 x i8]* @.str.1, i64 0, i64 0), i32 %94)
  br label %96

96:                                               ; preds = %90, %84
  br label %97

97:                                               ; preds = %96
  %98 = load i32, i32* %5, align 4
  %99 = add nsw i32 %98, 1
  store i32 %99, i32* %5, align 4
  br label %80

100:                                              ; preds = %80
  ret void
}

declare dso_local i32 @gets(...) #1

; Function Attrs: nounwind readonly
declare dso_local i64 @strlen(i8*) #2

declare dso_local i32 @printf(i8*, ...) #1


!llvm.module.flags = !{!0}
!llvm.ident = !{!1}

!0 = !{i32 1, !"wchar_size", i32 4}
!1 = !{!"clang version 10.0.0-4ubuntu1 "}
